target datalayout = "e-m:e-p270:32:32-p271:32:32-p272:64:64-i64:64-i128:128-f80:128-n8:16:32:64-S128"
target triple = "x86_64-pc-linux-gnu"

%struct.mbedtls_mpi = type { i32, i64, ptr }

; Function Attrs: mustprogress uwtable
define internal void @_ZL19mbedtls_mpi_zeroizePmm(ptr noundef %0, i64 noundef %1) #1 {
  %3 = alloca ptr, align 8
  %4 = alloca i64, align 8
  store ptr %0, ptr %3, align 8, !tbaa !15
  store i64 %1, ptr %4, align 8, !tbaa !16
  %5 = load ptr, ptr %3, align 8, !tbaa !15
  %6 = load i64, ptr %4, align 8, !tbaa !16
  %7 = mul i64 8, %6
  call void @mbedtls_platform_zeroize(ptr noundef %5, i64 noundef %7)
  ret void
}

; Function Attrs: mustprogress uwtable
define hidden i32 @mbedtls_mpi_grow(ptr noundef %0, i64 noundef %1) #1 {
  %3 = alloca i32, align 4
  %4 = alloca ptr, align 8
  %5 = alloca i64, align 8
  %6 = alloca ptr, align 8
  %7 = alloca i32, align 4
  store ptr %0, ptr %4, align 8, !tbaa !3
  store i64 %1, ptr %5, align 8, !tbaa !16
  call void @llvm.lifetime.start.p0(i64 8, ptr %6) #10
  br label %8

8:                                                ; preds = %2
  br label %9

9:                                                ; preds = %8
  br label %10

10:                                               ; preds = %9
  %11 = load i64, ptr %5, align 8, !tbaa !16
  %12 = icmp ugt i64 %11, 10000
  br i1 %12, label %13, label %14

13:                                               ; preds = %10
  store i32 -16, ptr %3, align 4
  store i32 1, ptr %7, align 4
  br label %56

14:                                               ; preds = %10
  %15 = load ptr, ptr %4, align 8, !tbaa !3
  %16 = getelementptr inbounds nuw %struct.mbedtls_mpi, ptr %15, i32 0, i32 1
  %17 = load i64, ptr %16, align 8, !tbaa !13
  %18 = load i64, ptr %5, align 8, !tbaa !16
  %19 = icmp ult i64 %17, %18
  br i1 %19, label %20, label %55

20:                                               ; preds = %14
  %21 = load i64, ptr %5, align 8, !tbaa !16
  %22 = call noalias ptr @calloc(i64 noundef %21, i64 noundef 8) #11
  store ptr %22, ptr %6, align 8, !tbaa !15
  %23 = icmp eq ptr %22, null
  br i1 %23, label %24, label %25

24:                                               ; preds = %20
  store i32 -16, ptr %3, align 4
  store i32 1, ptr %7, align 4
  br label %56

25:                                               ; preds = %20
  %26 = load ptr, ptr %4, align 8, !tbaa !3
  %27 = getelementptr inbounds nuw %struct.mbedtls_mpi, ptr %26, i32 0, i32 2
  %28 = load ptr, ptr %27, align 8, !tbaa !14
  %29 = icmp ne ptr %28, null
  br i1 %29, label %30, label %48

30:                                               ; preds = %25
  %31 = load ptr, ptr %6, align 8, !tbaa !15
  %32 = load ptr, ptr %4, align 8, !tbaa !3
  %33 = getelementptr inbounds nuw %struct.mbedtls_mpi, ptr %32, i32 0, i32 2
  %34 = load ptr, ptr %33, align 8, !tbaa !14
  %35 = load ptr, ptr %4, align 8, !tbaa !3
  %36 = getelementptr inbounds nuw %struct.mbedtls_mpi, ptr %35, i32 0, i32 1
  %37 = load i64, ptr %36, align 8, !tbaa !13
  %38 = mul i64 %37, 8
  call void @llvm.memcpy.p0.p0.i64(ptr align 8 %31, ptr align 8 %34, i64 %38, i1 false)
  %39 = load ptr, ptr %4, align 8, !tbaa !3
  %40 = getelementptr inbounds nuw %struct.mbedtls_mpi, ptr %39, i32 0, i32 2
  %41 = load ptr, ptr %40, align 8, !tbaa !14
  %42 = load ptr, ptr %4, align 8, !tbaa !3
  %43 = getelementptr inbounds nuw %struct.mbedtls_mpi, ptr %42, i32 0, i32 1
  %44 = load i64, ptr %43, align 8, !tbaa !13
  call void @_ZL19mbedtls_mpi_zeroizePmm(ptr noundef %41, i64 noundef %44)
  %45 = load ptr, ptr %4, align 8, !tbaa !3
  %46 = getelementptr inbounds nuw %struct.mbedtls_mpi, ptr %45, i32 0, i32 2
  %47 = load ptr, ptr %46, align 8, !tbaa !14
  call void @free(ptr noundef %47) #10
  br label %48

48:                                               ; preds = %30, %25
  %49 = load i64, ptr %5, align 8, !tbaa !16
  %50 = load ptr, ptr %4, align 8, !tbaa !3
  %51 = getelementptr inbounds nuw %struct.mbedtls_mpi, ptr %50, i32 0, i32 1
  store i64 %49, ptr %51, align 8, !tbaa !13
  %52 = load ptr, ptr %6, align 8, !tbaa !15
  %53 = load ptr, ptr %4, align 8, !tbaa !3
  %54 = getelementptr inbounds nuw %struct.mbedtls_mpi, ptr %53, i32 0, i32 2
  store ptr %52, ptr %54, align 8, !tbaa !14
  br label %55

55:                                               ; preds = %48, %14
  store i32 0, ptr %3, align 4
  store i32 1, ptr %7, align 4
  br label %56

56:                                               ; preds = %55, %24, %13
  call void @llvm.lifetime.end.p0(i64 8, ptr %6) #10
  %57 = load i32, ptr %3, align 4
  ret i32 %57
}

; Function Attrs: mustprogress uwtable
define hidden i32 @mbedtls_mpi_lset(ptr noundef %0, i64 noundef %1) #1 {
  %3 = alloca ptr, align 8
  %4 = alloca i64, align 8
  %5 = alloca i32, align 4
  store ptr %0, ptr %3, align 8, !tbaa !3
  store i64 %1, ptr %4, align 8, !tbaa !16
  call void @llvm.lifetime.start.p0(i64 4, ptr %5) #10
  store i32 -110, ptr %5, align 4, !tbaa !19
  br label %6

6:                                                ; preds = %2
  br label %7

7:                                                ; preds = %6
  br label %8

8:                                                ; preds = %7
  br label %9

9:                                                ; preds = %8
  %10 = load ptr, ptr %3, align 8, !tbaa !3
  %11 = call i32 @mbedtls_mpi_grow(ptr noundef %10, i64 noundef 1)
  store i32 %11, ptr %5, align 4, !tbaa !19
  %12 = icmp ne i32 %11, 0
  br i1 %12, label %13, label %14

13:                                               ; preds = %9
  br label %42

14:                                               ; preds = %9
  br label %15

15:                                               ; preds = %14
  br label %16

16:                                               ; preds = %15
  %17 = load ptr, ptr %3, align 8, !tbaa !3
  %18 = getelementptr inbounds nuw %struct.mbedtls_mpi, ptr %17, i32 0, i32 2
  %19 = load ptr, ptr %18, align 8, !tbaa !14
  %20 = load ptr, ptr %3, align 8, !tbaa !3
  %21 = getelementptr inbounds nuw %struct.mbedtls_mpi, ptr %20, i32 0, i32 1
  %22 = load i64, ptr %21, align 8, !tbaa !13
  %23 = mul i64 %22, 8
  call void @llvm.memset.p0.i64(ptr align 8 %19, i8 0, i64 %23, i1 false)
  %24 = load i64, ptr %4, align 8, !tbaa !16
  %25 = icmp slt i64 %24, 0
  br i1 %25, label %26, label %29

26:                                               ; preds = %16
  %27 = load i64, ptr %4, align 8, !tbaa !16
  %28 = sub nsw i64 0, %27
  br label %31

29:                                               ; preds = %16
  %30 = load i64, ptr %4, align 8, !tbaa !16
  br label %31

31:                                               ; preds = %29, %26
  %32 = phi i64 [ %28, %26 ], [ %30, %29 ]
  %33 = load ptr, ptr %3, align 8, !tbaa !3
  %34 = getelementptr inbounds nuw %struct.mbedtls_mpi, ptr %33, i32 0, i32 2
  %35 = load ptr, ptr %34, align 8, !tbaa !14
  %36 = getelementptr inbounds i64, ptr %35, i64 0
  store i64 %32, ptr %36, align 8, !tbaa !16
  %37 = load i64, ptr %4, align 8, !tbaa !16
  %38 = icmp slt i64 %37, 0
  %39 = select i1 %38, i32 -1, i32 1
  %40 = load ptr, ptr %3, align 8, !tbaa !3
  %41 = getelementptr inbounds nuw %struct.mbedtls_mpi, ptr %40, i32 0, i32 0
  store i32 %39, ptr %41, align 8, !tbaa !8
  br label %42

42:                                               ; preds = %31, %13
  %43 = load i32, ptr %5, align 4, !tbaa !19
  call void @llvm.lifetime.end.p0(i64 4, ptr %5) #10
  ret i32 %43
}

; Function Attrs: mustprogress uwtable
define hidden i32 @mbedtls_mpi_shift_r(ptr noundef %0, i64 noundef %1) #1 {
  %3 = alloca i32, align 4
  %4 = alloca ptr, align 8
  %5 = alloca i64, align 8
  %6 = alloca i64, align 8
  %7 = alloca i64, align 8
  %8 = alloca i64, align 8
  %9 = alloca i64, align 8
  %10 = alloca i64, align 8
  %11 = alloca i32, align 4
  store ptr %0, ptr %4, align 8, !tbaa !3
  store i64 %1, ptr %5, align 8, !tbaa !16
  call void @llvm.lifetime.start.p0(i64 8, ptr %6) #10
  call void @llvm.lifetime.start.p0(i64 8, ptr %7) #10
  call void @llvm.lifetime.start.p0(i64 8, ptr %8) #10
  call void @llvm.lifetime.start.p0(i64 8, ptr %9) #10
  store i64 0, ptr %9, align 8, !tbaa !16
  call void @llvm.lifetime.start.p0(i64 8, ptr %10) #10
  br label %12

12:                                               ; preds = %2
  br label %13

13:                                               ; preds = %12
  br label %14

14:                                               ; preds = %13
  %15 = load i64, ptr %5, align 8, !tbaa !16
  %16 = udiv i64 %15, 64
  store i64 %16, ptr %7, align 8, !tbaa !16
  %17 = load i64, ptr %5, align 8, !tbaa !16
  %18 = and i64 %17, 63
  store i64 %18, ptr %8, align 8, !tbaa !16
  %19 = load i64, ptr %7, align 8, !tbaa !16
  %20 = load ptr, ptr %4, align 8, !tbaa !3
  %21 = getelementptr inbounds nuw %struct.mbedtls_mpi, ptr %20, i32 0, i32 1
  %22 = load i64, ptr %21, align 8, !tbaa !13
  %23 = icmp ugt i64 %19, %22
  br i1 %23, label %33, label %24

24:                                               ; preds = %14
  %25 = load i64, ptr %7, align 8, !tbaa !16
  %26 = load ptr, ptr %4, align 8, !tbaa !3
  %27 = getelementptr inbounds nuw %struct.mbedtls_mpi, ptr %26, i32 0, i32 1
  %28 = load i64, ptr %27, align 8, !tbaa !13
  %29 = icmp eq i64 %25, %28
  br i1 %29, label %30, label %36

30:                                               ; preds = %24
  %31 = load i64, ptr %8, align 8, !tbaa !16
  %32 = icmp ugt i64 %31, 0
  br i1 %32, label %33, label %36

33:                                               ; preds = %30, %14
  %34 = load ptr, ptr %4, align 8, !tbaa !3
  %35 = call i32 @mbedtls_mpi_lset(ptr noundef %34, i64 noundef 0)
  store i32 %35, ptr %3, align 4
  store i32 1, ptr %11, align 4
  br label %127

36:                                               ; preds = %30, %24
  %37 = load i64, ptr %7, align 8, !tbaa !16
  %38 = icmp ugt i64 %37, 0
  br i1 %38, label %39, label %82

39:                                               ; preds = %36
  store i64 0, ptr %6, align 8, !tbaa !16
  br label %40

40:                                               ; preds = %62, %39
  %41 = load i64, ptr %6, align 8, !tbaa !16
  %42 = load ptr, ptr %4, align 8, !tbaa !3
  %43 = getelementptr inbounds nuw %struct.mbedtls_mpi, ptr %42, i32 0, i32 1
  %44 = load i64, ptr %43, align 8, !tbaa !13
  %45 = load i64, ptr %7, align 8, !tbaa !16
  %46 = sub i64 %44, %45
  %47 = icmp ult i64 %41, %46
  br i1 %47, label %48, label %65

48:                                               ; preds = %40
  %49 = load ptr, ptr %4, align 8, !tbaa !3
  %50 = getelementptr inbounds nuw %struct.mbedtls_mpi, ptr %49, i32 0, i32 2
  %51 = load ptr, ptr %50, align 8, !tbaa !14
  %52 = load i64, ptr %6, align 8, !tbaa !16
  %53 = load i64, ptr %7, align 8, !tbaa !16
  %54 = add i64 %52, %53
  %55 = getelementptr inbounds nuw i64, ptr %51, i64 %54
  %56 = load i64, ptr %55, align 8, !tbaa !16
  %57 = load ptr, ptr %4, align 8, !tbaa !3
  %58 = getelementptr inbounds nuw %struct.mbedtls_mpi, ptr %57, i32 0, i32 2
  %59 = load ptr, ptr %58, align 8, !tbaa !14
  %60 = load i64, ptr %6, align 8, !tbaa !16
  %61 = getelementptr inbounds nuw i64, ptr %59, i64 %60
  store i64 %56, ptr %61, align 8, !tbaa !16
  br label %62

62:                                               ; preds = %48
  %63 = load i64, ptr %6, align 8, !tbaa !16
  %64 = add i64 %63, 1
  store i64 %64, ptr %6, align 8, !tbaa !16
  br label %40, !llvm.loop !45

65:                                               ; preds = %40
  br label %66

66:                                               ; preds = %78, %65
  %67 = load i64, ptr %6, align 8, !tbaa !16
  %68 = load ptr, ptr %4, align 8, !tbaa !3
  %69 = getelementptr inbounds nuw %struct.mbedtls_mpi, ptr %68, i32 0, i32 1
  %70 = load i64, ptr %69, align 8, !tbaa !13
  %71 = icmp ult i64 %67, %70
  br i1 %71, label %72, label %81

72:                                               ; preds = %66
  %73 = load ptr, ptr %4, align 8, !tbaa !3
  %74 = getelementptr inbounds nuw %struct.mbedtls_mpi, ptr %73, i32 0, i32 2
  %75 = load ptr, ptr %74, align 8, !tbaa !14
  %76 = load i64, ptr %6, align 8, !tbaa !16
  %77 = getelementptr inbounds nuw i64, ptr %75, i64 %76
  store i64 0, ptr %77, align 8, !tbaa !16
  br label %78

78:                                               ; preds = %72
  %79 = load i64, ptr %6, align 8, !tbaa !16
  %80 = add i64 %79, 1
  store i64 %80, ptr %6, align 8, !tbaa !16
  br label %66, !llvm.loop !46

81:                                               ; preds = %66
  br label %82

82:                                               ; preds = %81, %36
  %83 = load i64, ptr %8, align 8, !tbaa !16
  %84 = icmp ugt i64 %83, 0
  br i1 %84, label %85, label %126

85:                                               ; preds = %82
  %86 = load ptr, ptr %4, align 8, !tbaa !3
  %87 = getelementptr inbounds nuw %struct.mbedtls_mpi, ptr %86, i32 0, i32 1
  %88 = load i64, ptr %87, align 8, !tbaa !13
  store i64 %88, ptr %6, align 8, !tbaa !16
  br label %89

89:                                               ; preds = %122, %85
  %90 = load i64, ptr %6, align 8, !tbaa !16
  %91 = icmp ugt i64 %90, 0
  br i1 %91, label %92, label %125

92:                                               ; preds = %89
  %93 = load ptr, ptr %4, align 8, !tbaa !3
  %94 = getelementptr inbounds nuw %struct.mbedtls_mpi, ptr %93, i32 0, i32 2
  %95 = load ptr, ptr %94, align 8, !tbaa !14
  %96 = load i64, ptr %6, align 8, !tbaa !16
  %97 = sub i64 %96, 1
  %98 = getelementptr inbounds nuw i64, ptr %95, i64 %97
  %99 = load i64, ptr %98, align 8, !tbaa !16
  %100 = load i64, ptr %8, align 8, !tbaa !16
  %101 = sub i64 64, %100
  %102 = shl i64 %99, %101
  store i64 %102, ptr %10, align 8, !tbaa !16
  %103 = load i64, ptr %8, align 8, !tbaa !16
  %104 = load ptr, ptr %4, align 8, !tbaa !3
  %105 = getelementptr inbounds nuw %struct.mbedtls_mpi, ptr %104, i32 0, i32 2
  %106 = load ptr, ptr %105, align 8, !tbaa !14
  %107 = load i64, ptr %6, align 8, !tbaa !16
  %108 = sub i64 %107, 1
  %109 = getelementptr inbounds nuw i64, ptr %106, i64 %108
  %110 = load i64, ptr %109, align 8, !tbaa !16
  %111 = lshr i64 %110, %103
  store i64 %111, ptr %109, align 8, !tbaa !16
  %112 = load i64, ptr %9, align 8, !tbaa !16
  %113 = load ptr, ptr %4, align 8, !tbaa !3
  %114 = getelementptr inbounds nuw %struct.mbedtls_mpi, ptr %113, i32 0, i32 2
  %115 = load ptr, ptr %114, align 8, !tbaa !14
  %116 = load i64, ptr %6, align 8, !tbaa !16
  %117 = sub i64 %116, 1
  %118 = getelementptr inbounds nuw i64, ptr %115, i64 %117
  %119 = load i64, ptr %118, align 8, !tbaa !16
  %120 = or i64 %119, %112
  store i64 %120, ptr %118, align 8, !tbaa !16
  %121 = load i64, ptr %10, align 8, !tbaa !16
  store i64 %121, ptr %9, align 8, !tbaa !16
  br label %122

122:                                              ; preds = %92
  %123 = load i64, ptr %6, align 8, !tbaa !16
  %124 = add i64 %123, -1
  store i64 %124, ptr %6, align 8, !tbaa !16
  br label %89, !llvm.loop !47

125:                                              ; preds = %89
  br label %126

126:                                              ; preds = %125, %82
  store i32 0, ptr %3, align 4
  store i32 1, ptr %11, align 4
  br label %127

127:                                              ; preds = %126, %33
  call void @llvm.lifetime.end.p0(i64 8, ptr %10) #10
  call void @llvm.lifetime.end.p0(i64 8, ptr %9) #10
  call void @llvm.lifetime.end.p0(i64 8, ptr %8) #10
  call void @llvm.lifetime.end.p0(i64 8, ptr %7) #10
  call void @llvm.lifetime.end.p0(i64 8, ptr %6) #10
  %128 = load i32, ptr %3, align 4
  ret i32 %128
}