; Function Attrs: mustprogress uwtable
define hidden range(i32 -16, 1) i32 @mbedtls_mpi_shift_r(ptr noundef captures(none) %0, i64 noundef %1) local_unnamed_addr #1 {
  %3 = lshr i64 %1, 6
  %4 = and i64 %1, 63
  %5 = getelementptr inbounds nuw i8, ptr %0, i64 8
  %6 = load i64, ptr %5, align 8, !tbaa !12
  %7 = icmp ugt i64 %3, %6
  br i1 %7, label %11, label %8

8:                                                ; preds = %2
  %9 = icmp eq i64 %3, %6
  %10 = icmp ne i64 %4, 0
  %or.cond = and i1 %10, %9
  br i1 %or.cond, label %11, label %28

11:                                               ; preds = %8, %2
  %12 = icmp eq i64 %6, 0
  br i1 %12, label %14, label %._crit_edge.i

._crit_edge.i:                                    ; preds = %11
  %.phi.trans.insert.i = getelementptr inbounds nuw i8, ptr %0, i64 16
  %.pre.i = load ptr, ptr %.phi.trans.insert.i, align 8, !tbaa !11
  %13 = shl nuw nsw i64 %6, 3
  br label %23

14:                                               ; preds = %11
  %15 = tail call noalias dereferenceable_or_null(8) ptr @calloc(i64 noundef 1, i64 noundef 8) #16
  %16 = icmp eq ptr %15, null
  br i1 %16, label %mbedtls_mpi_lset.exit, label %17

17:                                               ; preds = %14
  %18 = getelementptr inbounds nuw i8, ptr %0, i64 16
  %19 = load ptr, ptr %18, align 8, !tbaa !11
  %.not.i.i = icmp eq ptr %19, null
  br i1 %.not.i.i, label %22, label %20

20:                                               ; preds = %17
  tail call void @mbedtls_platform_zeroize(ptr noundef nonnull %19, i64 noundef 0)
  %21 = load ptr, ptr %18, align 8, !tbaa !11
  tail call void @free(ptr noundef %21) #15
  br label %22

22:                                               ; preds = %20, %17
  store i64 1, ptr %5, align 8, !tbaa !12
  store ptr %15, ptr %18, align 8, !tbaa !11
  br label %23

23:                                               ; preds = %22, %._crit_edge.i
  %24 = phi i64 [ %13, %._crit_edge.i ], [ 8, %22 ]
  %25 = phi ptr [ %.pre.i, %._crit_edge.i ], [ %15, %22 ]
  %26 = getelementptr inbounds nuw i8, ptr %0, i64 16
  tail call void @llvm.memset.p0.i64(ptr align 8 %25, i8 0, i64 %24, i1 false)
  %27 = load ptr, ptr %26, align 8, !tbaa !11
  store i64 0, ptr %27, align 8, !tbaa !13
  store i32 1, ptr %0, align 8, !tbaa !3
  br label %mbedtls_mpi_lset.exit

28:                                               ; preds = %8
  %.not = icmp ult i64 %1, 64
  br i1 %.not, label %.loopexit, label %.preheader44

.preheader44:                                     ; preds = %28
  br i1 %9, label %.preheader, label %.lr.ph

.lr.ph:                                           ; preds = %.preheader44
  %29 = getelementptr inbounds nuw i8, ptr %0, i64 16
  %30 = load ptr, ptr %29, align 8, !tbaa !11
  br label %35

.preheader:                                       ; preds = %35, %.preheader44
  %31 = phi i64 [ %3, %.preheader44 ], [ %40, %35 ]
  %.039.lcssa = phi i64 [ 0, %.preheader44 ], [ %39, %35 ]
  %32 = icmp ult i64 %.039.lcssa, %31
  br i1 %32, label %.lr.ph47, label %.loopexit

.lr.ph47:                                         ; preds = %.preheader
  %33 = getelementptr inbounds nuw i8, ptr %0, i64 16
  %34 = load ptr, ptr %33, align 8, !tbaa !11
  br label %43

35:                                               ; preds = %.lr.ph, %35
  %.03945 = phi i64 [ 0, %.lr.ph ], [ %39, %35 ]
  %36 = getelementptr i64, ptr %30, i64 %.03945
  %37 = getelementptr i64, ptr %36, i64 %3
  %38 = load i64, ptr %37, align 8, !tbaa !13
  store i64 %38, ptr %36, align 8, !tbaa !13
  %39 = add nuw i64 %.03945, 1
  %40 = load i64, ptr %5, align 8, !tbaa !12
  %41 = sub i64 %40, %3
  %42 = icmp ult i64 %39, %41
  br i1 %42, label %35, label %.preheader, !llvm.loop !38

43:                                               ; preds = %.lr.ph47, %43
  %.146 = phi i64 [ %.039.lcssa, %.lr.ph47 ], [ %45, %43 ]
  %44 = getelementptr inbounds nuw i64, ptr %34, i64 %.146
  store i64 0, ptr %44, align 8, !tbaa !13
  %45 = add nuw i64 %.146, 1
  %46 = load i64, ptr %5, align 8, !tbaa !12
  %47 = icmp ult i64 %45, %46
  br i1 %47, label %43, label %.loopexit, !llvm.loop !39

.loopexit:                                        ; preds = %43, %.preheader, %28
  %48 = phi i64 [ %31, %.preheader ], [ %6, %28 ], [ %46, %43 ]
  %.not4348 = icmp ne i64 %48, 0
  %or.cond56.not = and i1 %.not4348, %10
  br i1 %or.cond56.not, label %.lr.ph51, label %mbedtls_mpi_lset.exit

.lr.ph51:                                         ; preds = %.loopexit
  %49 = getelementptr inbounds nuw i8, ptr %0, i64 16
  %50 = load ptr, ptr %49, align 8, !tbaa !11
  %51 = sub nuw nsw i64 64, %4
  br label %52

52:                                               ; preds = %.lr.ph51, %52
  %.03850 = phi i64 [ 0, %.lr.ph51 ], [ %56, %52 ]
  %.249 = phi i64 [ %48, %.lr.ph51 ], [ %53, %52 ]
  %53 = add i64 %.249, -1
  %54 = getelementptr inbounds nuw i64, ptr %50, i64 %53
  %55 = load i64, ptr %54, align 8, !tbaa !13
  %56 = shl i64 %55, %51
  %57 = lshr i64 %55, %4
  %58 = or i64 %57, %.03850
  store i64 %58, ptr %54, align 8, !tbaa !13
  %.not43 = icmp eq i64 %53, 0
  br i1 %.not43, label %mbedtls_mpi_lset.exit, label %52, !llvm.loop !40

mbedtls_mpi_lset.exit:                            ; preds = %52, %23, %14, %.loopexit
  %.0 = phi i32 [ 0, %.loopexit ], [ 0, %23 ], [ -16, %14 ], [ 0, %52 ]
  ret i32 %.0
}